target datalayout = "e-m:e-p270:32:32-p271:32:32-p272:64:64-i64:64-i128:128-f80:128-n8:16:32:64-S128"
target triple = "x86_64-pc-linux-gnu"

%struct.expert_field = type { i32, i32 }
%struct.true_false_string = type { ptr, ptr }
%struct._header_field_info = type { ptr, ptr, i32, i32, ptr, i64, ptr, i32, i32, i32, i32, ptr }
%struct._asn1_ctx_t = type { i32, i32, i8, ptr, ptr, ptr, ptr, ptr, %struct.anon, %struct.anon.2, %struct.anon.3, ptr }
%struct.anon = type { i32, i8, i8, i8, ptr, ptr, i32, i32, ptr, ptr, ptr, %union.anon }
%union.anon = type { %struct.anon.0 }
%struct.anon.0 = type { ptr }
%struct.anon.2 = type { ptr, ptr, ptr }
%struct.anon.3 = type { i32, i8, ptr, i32, i32, ptr, ptr, ptr, %union.anon.4 }
%union.anon.4 = type { %struct.anon.5 }
%struct.anon.5 = type { ptr }
%struct._packet_info = type { ptr, ptr, i32, i32, %struct.nstime_t, %struct.nstime_t, %struct.nstime_t, i8, ptr, ptr, ptr, ptr, %struct._address, %struct._address, %struct._address, %struct._address, %struct._address, %struct._address, i32, ptr, i8, [3 x i8], %struct.anon.7, i32, i32, i32, i32, ptr, i8, ptr, ptr, i16, i16, i32, i32, i16, i32, i32, ptr, ptr, ptr, i8, i8, i16, i16, i16, i32, i16, i16, ptr, ptr, ptr, ptr, ptr, i32, i32 }
%struct.nstime_t = type { i64, i32 }
%struct._address = type { i32, i32, ptr, ptr }
%struct.anon.7 = type { i8, [3 x i8] }

@.str.3 = private unnamed_addr constant [8 x i8] c"Unknown\00", align 1
@decode_unexpected = internal global i8 0, align 1
@ett_ber_unknown = internal global i32 0, align 4
@tfs_constructed_primitive = external constant %struct.true_false_string, align 8
@.str.10 = private unnamed_addr constant [55 x i8] c"%s:%u: failed assertion \22DISSECTOR_ASSERT_NOT_REACHED\22\00", align 1
@.str.11 = private unnamed_addr constant [29 x i8] c"epan/dissectors/packet-ber.c\00", align 1
@ei_ber_expected_object_identifier = internal global %struct.expert_field zeroinitializer, align 4
@.str.351 = private unnamed_addr constant [80 x i8] c"BER Error: Object Identifier expected but class:%s(%d) %s tag:%d was unexpected\00", align 1
@.str.352 = private unnamed_addr constant [6 x i8] c" (%s)\00", align 1

; Function Attrs: null_pointer_is_valid sspstrong uwtable
define internal ptr @ber_tvb_new_subset_length(ptr noundef %0, i32 noundef %1, i32 noundef %2) #0 {
  %4 = alloca ptr, align 8
  %5 = alloca i32, align 4
  %6 = alloca i32, align 4
  %7 = alloca i32, align 4
  store ptr %0, ptr %4, align 8
  store i32 %1, ptr %5, align 4
  store i32 %2, ptr %6, align 4
  call void @llvm.lifetime.start.p0(i64 4, ptr %7) #12
  %8 = load ptr, ptr %4, align 8
  %9 = load i32, ptr %5, align 4
  %10 = call i32 @tvb_reported_length_remaining(ptr noundef %8, i32 noundef %9)
  store i32 %10, ptr %7, align 4
  %11 = load ptr, ptr %4, align 8
  %12 = load i32, ptr %5, align 4
  %13 = load i32, ptr %7, align 4
  %14 = load i32, ptr %6, align 4
  %15 = icmp sgt i32 %13, %14
  br i1 %15, label %16, label %18

16:                                               ; preds = %3
  %17 = load i32, ptr %6, align 4
  br label %20

18:                                               ; preds = %3
  %19 = load i32, ptr %7, align 4
  br label %20

20:                                               ; preds = %18, %16
  %21 = phi i32 [ %17, %16 ], [ %19, %18 ]
  %22 = call ptr @tvb_new_subset_length(ptr noundef %11, i32 noundef %12, i32 noundef %21)
  call void @llvm.lifetime.end.p0(i64 4, ptr %7) #12
  ret ptr %22
}

; Function Attrs: null_pointer_is_valid sspstrong uwtable
define i32 @dissect_unknown_ber(ptr noundef %0, ptr noundef %1, i32 noundef %2, ptr noundef %3) #0 {
  %5 = alloca ptr, align 8
  %6 = alloca ptr, align 8
  %7 = alloca i32, align 4
  %8 = alloca ptr, align 8
  store ptr %0, ptr %5, align 8
  store ptr %1, ptr %6, align 8
  store i32 %2, ptr %7, align 4
  store ptr %3, ptr %8, align 8
  %9 = load ptr, ptr %5, align 8
  %10 = load ptr, ptr %6, align 8
  %11 = load i32, ptr %7, align 4
  %12 = load ptr, ptr %8, align 8
  %13 = call i32 @try_dissect_unknown_ber(ptr noundef %9, ptr noundef %10, i32 noundef %11, ptr noundef %12, i32 noundef 1)
  ret i32 %13
}

; Function Attrs: null_pointer_is_valid sspstrong uwtable
define internal i32 @dissect_ber_any_oid(i1 noundef zeroext %0, ptr noundef %1, ptr noundef %2, ptr noundef %3, i32 noundef %4, i32 noundef %5, ptr noundef %6, i1 noundef zeroext %7) #0 {
  %9 = alloca i32, align 4
  %10 = alloca i8, align 1
  %11 = alloca ptr, align 8
  %12 = alloca ptr, align 8
  %13 = alloca ptr, align 8
  %14 = alloca i32, align 4
  %15 = alloca i32, align 4
  %16 = alloca ptr, align 8
  %17 = alloca i8, align 1
  %18 = alloca i8, align 1
  %19 = alloca i8, align 1
  %20 = alloca i32, align 4
  %21 = alloca i32, align 4
  %22 = alloca i32, align 4
  %23 = alloca i32, align 4
  %24 = alloca i32, align 4
  %25 = alloca i32, align 4
  %26 = alloca ptr, align 8
  %27 = alloca ptr, align 8
  %28 = alloca ptr, align 8
  %29 = alloca ptr, align 8
  %30 = alloca ptr, align 8
  %31 = alloca i32, align 4
  %32 = zext i1 %0 to i8
  store i8 %32, ptr %10, align 1
  store ptr %1, ptr %11, align 8
  store ptr %2, ptr %12, align 8
  store ptr %3, ptr %13, align 8
  store i32 %4, ptr %14, align 4
  store i32 %5, ptr %15, align 4
  store ptr %6, ptr %16, align 8
  %33 = zext i1 %7 to i8
  store i8 %33, ptr %17, align 1
  call void @llvm.lifetime.start.p0(i64 1, ptr %18) #12
  call void @llvm.lifetime.start.p0(i64 1, ptr %19) #12
  call void @llvm.lifetime.start.p0(i64 4, ptr %20) #12
  call void @llvm.lifetime.start.p0(i64 4, ptr %21) #12
  call void @llvm.lifetime.start.p0(i64 4, ptr %22) #12
  call void @llvm.lifetime.start.p0(i64 4, ptr %23) #12
  call void @llvm.lifetime.start.p0(i64 4, ptr %24) #12
  call void @llvm.lifetime.start.p0(i64 4, ptr %25) #12
  call void @llvm.lifetime.start.p0(i64 8, ptr %26) #12
  call void @llvm.lifetime.start.p0(i64 8, ptr %27) #12
  call void @llvm.lifetime.start.p0(i64 8, ptr %28) #12
  call void @llvm.lifetime.start.p0(i64 8, ptr %29) #12
  %34 = load i8, ptr %10, align 1, !range !6, !noundef !7
  %35 = trunc i8 %34 to i1
  br i1 %35, label %110, label %36

36:                                               ; preds = %8
  %37 = load i32, ptr %14, align 4
  store i32 %37, ptr %25, align 4
  %38 = load i32, ptr %14, align 4
  store i32 %38, ptr %21, align 4
  %39 = load ptr, ptr %11, align 8
  %40 = getelementptr inbounds nuw %struct._asn1_ctx_t, ptr %39, i32 0, i32 3
  %41 = load ptr, ptr %40, align 8
  %42 = load ptr, ptr %12, align 8
  %43 = load ptr, ptr %13, align 8
  %44 = load i32, ptr %14, align 4
  %45 = call i32 @dissect_ber_identifier(ptr noundef %41, ptr noundef %42, ptr noundef %43, i32 noundef %44, ptr noundef %18, ptr noundef %19, ptr noundef %20)
  store i32 %45, ptr %14, align 4
  %46 = load i32, ptr %14, align 4
  %47 = load i32, ptr %21, align 4
  %48 = sub i32 %46, %47
  store i32 %48, ptr %22, align 4
  %49 = load ptr, ptr %11, align 8
  %50 = getelementptr inbounds nuw %struct._asn1_ctx_t, ptr %49, i32 0, i32 3
  %51 = load ptr, ptr %50, align 8
  %52 = load ptr, ptr %12, align 8
  %53 = load ptr, ptr %13, align 8
  %54 = load i32, ptr %14, align 4
  %55 = call i32 @dissect_ber_length(ptr noundef %51, ptr noundef %52, ptr noundef %53, i32 noundef %54, ptr noundef %23, ptr noundef null)
  store i32 %55, ptr %14, align 4
  %56 = load i32, ptr %14, align 4
  %57 = load i32, ptr %23, align 4
  %58 = add i32 %56, %57
  store i32 %58, ptr %24, align 4
  %59 = load i8, ptr %18, align 1
  %60 = sext i8 %59 to i32
  %61 = icmp ne i32 %60, 0
  br i1 %61, label %74, label %62

62:                                               ; preds = %36
  %63 = load i8, ptr %17, align 1, !range !6, !noundef !7
  %64 = trunc i8 %63 to i1
  br i1 %64, label %65, label %68

65:                                               ; preds = %62
  %66 = load i32, ptr %20, align 4
  %67 = icmp ne i32 %66, 6
  br i1 %67, label %74, label %68

68:                                               ; preds = %65, %62
  %69 = load i8, ptr %17, align 1, !range !6, !noundef !7
  %70 = trunc i8 %69 to i1
  br i1 %70, label %109, label %71

71:                                               ; preds = %68
  %72 = load i32, ptr %20, align 4
  %73 = icmp ne i32 %72, 13
  br i1 %73, label %74, label %109

74:                                               ; preds = %71, %65, %36
  %75 = load ptr, ptr %13, align 8
  %76 = load i32, ptr %25, align 4
  call void @tvb_ensure_bytes_exist(ptr noundef %75, i32 noundef %76, i32 noundef 2)
  %77 = load ptr, ptr %12, align 8
  %78 = load ptr, ptr %11, align 8
  %79 = getelementptr inbounds nuw %struct._asn1_ctx_t, ptr %78, i32 0, i32 3
  %80 = load ptr, ptr %79, align 8
  %81 = load ptr, ptr %13, align 8
  %82 = load i32, ptr %21, align 4
  %83 = load i32, ptr %22, align 4
  %84 = load i8, ptr %18, align 1
  %85 = sext i8 %84 to i32
  %86 = call ptr @val_to_str_const(i32 noundef %85, ptr noundef @ber_class_codes, ptr noundef @.str.3)
  %87 = load i8, ptr %18, align 1
  %88 = sext i8 %87 to i32
  %89 = load i8, ptr %19, align 1, !range !6, !noundef !7
  %90 = trunc i8 %89 to i1
  %91 = call ptr @tfs_get_string(i1 noundef zeroext %90, ptr noundef @tfs_constructed_primitive)
  %92 = load i32, ptr %20, align 4
  %93 = call ptr (ptr, ptr, ptr, ptr, i32, i32, ptr, ...) @proto_tree_add_expert_format(ptr noundef %77, ptr noundef %80, ptr noundef @ei_ber_expected_object_identifier, ptr noundef %81, i32 noundef %82, i32 noundef %83, ptr noundef @.str.351, ptr noundef %86, i32 noundef %88, ptr noundef %91, i32 noundef %92)
  store ptr %93, ptr %27, align 8
  %94 = load i8, ptr @decode_unexpected, align 1, !range !6, !noundef !7
  %95 = trunc i8 %94 to i1
  br i1 %95, label %96, label %107

96:                                               ; preds = %74
  call void @llvm.lifetime.start.p0(i64 8, ptr %30) #12
  %97 = load ptr, ptr %27, align 8
  %98 = load i32, ptr @ett_ber_unknown, align 4
  %99 = call ptr @proto_item_add_subtree(ptr noundef %97, i32 noundef %98)
  store ptr %99, ptr %30, align 8
  %100 = load ptr, ptr %11, align 8
  %101 = getelementptr inbounds nuw %struct._asn1_ctx_t, ptr %100, i32 0, i32 3
  %102 = load ptr, ptr %101, align 8
  %103 = load ptr, ptr %13, align 8
  %104 = load i32, ptr %25, align 4
  %105 = load ptr, ptr %30, align 8
  %106 = call i32 @dissect_unknown_ber(ptr noundef %102, ptr noundef %103, i32 noundef %104, ptr noundef %105)
  call void @llvm.lifetime.end.p0(i64 8, ptr %30) #12
  br label %107

107:                                              ; preds = %96, %74
  %108 = load i32, ptr %24, align 4
  store i32 %108, ptr %9, align 4
  store i32 1, ptr %31, align 4
  br label %235

109:                                              ; preds = %71, %68
  br label %117

110:                                              ; preds = %8
  %111 = load ptr, ptr %13, align 8
  %112 = load i32, ptr %14, align 4
  %113 = call i32 @tvb_reported_length_remaining(ptr noundef %111, i32 noundef %112)
  store i32 %113, ptr %23, align 4
  %114 = load i32, ptr %14, align 4
  %115 = load i32, ptr %23, align 4
  %116 = add i32 %114, %115
  store i32 %116, ptr %24, align 4
  br label %117

117:                                              ; preds = %110, %109
  %118 = load ptr, ptr %11, align 8
  %119 = getelementptr inbounds nuw %struct._asn1_ctx_t, ptr %118, i32 0, i32 4
  store ptr null, ptr %119, align 8
  %120 = load i32, ptr %15, align 4
  %121 = call ptr @proto_registrar_get_nth(i32 noundef %120)
  store ptr %121, ptr %29, align 8
  %122 = load i8, ptr %17, align 1, !range !6, !noundef !7
  %123 = trunc i8 %122 to i1
  br i1 %123, label %124, label %129

124:                                              ; preds = %117
  %125 = load ptr, ptr %29, align 8
  %126 = getelementptr inbounds nuw %struct._header_field_info, ptr %125, i32 0, i32 2
  %127 = load i32, ptr %126, align 8
  %128 = icmp eq i32 %127, 37
  br i1 %128, label %137, label %129

129:                                              ; preds = %124, %117
  %130 = load i8, ptr %17, align 1, !range !6, !noundef !7
  %131 = trunc i8 %130 to i1
  br i1 %131, label %146, label %132

132:                                              ; preds = %129
  %133 = load ptr, ptr %29, align 8
  %134 = getelementptr inbounds nuw %struct._header_field_info, ptr %133, i32 0, i32 2
  %135 = load i32, ptr %134, align 8
  %136 = icmp eq i32 %135, 41
  br i1 %136, label %137, label %146

137:                                              ; preds = %132, %124
  %138 = load ptr, ptr %12, align 8
  %139 = load i32, ptr %15, align 4
  %140 = load ptr, ptr %13, align 8
  %141 = load i32, ptr %14, align 4
  %142 = load i32, ptr %23, align 4
  %143 = call ptr @proto_tree_add_item(ptr noundef %138, i32 noundef %139, ptr noundef %140, i32 noundef %141, i32 noundef %142, i32 noundef 0)
  %144 = load ptr, ptr %11, align 8
  %145 = getelementptr inbounds nuw %struct._asn1_ctx_t, ptr %144, i32 0, i32 4
  store ptr %143, ptr %145, align 8
  br label %224

146:                                              ; preds = %132, %129
  %147 = load ptr, ptr %29, align 8
  %148 = getelementptr inbounds nuw %struct._header_field_info, ptr %147, i32 0, i32 2
  %149 = load i32, ptr %148, align 8
  %150 = icmp eq i32 %149, 26
  br i1 %150, label %176, label %151

151:                                              ; preds = %146
  %152 = load ptr, ptr %29, align 8
  %153 = getelementptr inbounds nuw %struct._header_field_info, ptr %152, i32 0, i32 2
  %154 = load i32, ptr %153, align 8
  %155 = icmp eq i32 %154, 27
  br i1 %155, label %176, label %156

156:                                              ; preds = %151
  %157 = load ptr, ptr %29, align 8
  %158 = getelementptr inbounds nuw %struct._header_field_info, ptr %157, i32 0, i32 2
  %159 = load i32, ptr %158, align 8
  %160 = icmp eq i32 %159, 43
  br i1 %160, label %176, label %161

161:                                              ; preds = %156
  %162 = load ptr, ptr %29, align 8
  %163 = getelementptr inbounds nuw %struct._header_field_info, ptr %162, i32 0, i32 2
  %164 = load i32, ptr %163, align 8
  %165 = icmp eq i32 %164, 45
  br i1 %165, label %176, label %166

166:                                              ; preds = %161
  %167 = load ptr, ptr %29, align 8
  %168 = getelementptr inbounds nuw %struct._header_field_info, ptr %167, i32 0, i32 2
  %169 = load i32, ptr %168, align 8
  %170 = icmp eq i32 %169, 28
  br i1 %170, label %176, label %171

171:                                              ; preds = %166
  %172 = load ptr, ptr %29, align 8
  %173 = getelementptr inbounds nuw %struct._header_field_info, ptr %172, i32 0, i32 2
  %174 = load i32, ptr %173, align 8
  %175 = icmp eq i32 %174, 39
  br i1 %175, label %176, label %222

176:                                              ; preds = %171, %166, %161, %156, %151, %146
  %177 = load ptr, ptr %11, align 8
  %178 = getelementptr inbounds nuw %struct._asn1_ctx_t, ptr %177, i32 0, i32 3
  %179 = load ptr, ptr %178, align 8
  %180 = getelementptr inbounds nuw %struct._packet_info, ptr %179, i32 0, i32 51
  %181 = load ptr, ptr %180, align 8
  %182 = load ptr, ptr %13, align 8
  %183 = load i32, ptr %14, align 4
  %184 = load i32, ptr %23, align 4
  %185 = call ptr @tvb_get_ptr(ptr noundef %182, i32 noundef %183, i32 noundef %184)
  %186 = load i32, ptr %23, align 4
  %187 = call ptr @oid_encoded2string(ptr noundef %181, ptr noundef %185, i32 noundef %186)
  store ptr %187, ptr %26, align 8
  %188 = load ptr, ptr %12, align 8
  %189 = load i32, ptr %15, align 4
  %190 = load ptr, ptr %13, align 8
  %191 = load i32, ptr %14, align 4
  %192 = load i32, ptr %23, align 4
  %193 = load ptr, ptr %26, align 8
  %194 = call ptr @proto_tree_add_string(ptr noundef %188, i32 noundef %189, ptr noundef %190, i32 noundef %191, i32 noundef %192, ptr noundef %193)
  %195 = load ptr, ptr %11, align 8
  %196 = getelementptr inbounds nuw %struct._asn1_ctx_t, ptr %195, i32 0, i32 4
  store ptr %194, ptr %196, align 8
  %197 = load ptr, ptr %11, align 8
  %198 = getelementptr inbounds nuw %struct._asn1_ctx_t, ptr %197, i32 0, i32 4
  %199 = load ptr, ptr %198, align 8
  %200 = icmp ne ptr %199, null
  br i1 %200, label %201, label %221

201:                                              ; preds = %176
  %202 = load ptr, ptr %11, align 8
  %203 = getelementptr inbounds nuw %struct._asn1_ctx_t, ptr %202, i32 0, i32 3
  %204 = load ptr, ptr %203, align 8
  %205 = getelementptr inbounds nuw %struct._packet_info, ptr %204, i32 0, i32 51
  %206 = load ptr, ptr %205, align 8
  %207 = load ptr, ptr %13, align 8
  %208 = load i32, ptr %14, align 4
  %209 = load i32, ptr %23, align 4
  %210 = call ptr @tvb_get_ptr(ptr noundef %207, i32 noundef %208, i32 noundef %209)
  %211 = load i32, ptr %23, align 4
  %212 = call ptr @oid_resolved_from_encoded(ptr noundef %206, ptr noundef %210, i32 noundef %211)
  store ptr %212, ptr %28, align 8
  %213 = load ptr, ptr %28, align 8
  %214 = icmp ne ptr %213, null
  br i1 %214, label %215, label %220

215:                                              ; preds = %201
  %216 = load ptr, ptr %11, align 8
  %217 = getelementptr inbounds nuw %struct._asn1_ctx_t, ptr %216, i32 0, i32 4
  %218 = load ptr, ptr %217, align 8
  %219 = load ptr, ptr %28, align 8
  call void (ptr, ptr, ...) @proto_item_append_text(ptr noundef %218, ptr noundef @.str.352, ptr noundef %219)
  br label %220

220:                                              ; preds = %215, %201
  br label %221

221:                                              ; preds = %220, %176
  br label %223

222:                                              ; preds = %171
  call void (ptr, ...) @proto_report_dissector_bug(ptr noundef @.str.10, ptr noundef @.str.11, i32 noundef 3283) #13
  unreachable

223:                                              ; preds = %221
  br label %224

224:                                              ; preds = %223, %137
  %225 = load ptr, ptr %16, align 8
  %226 = icmp ne ptr %225, null
  br i1 %226, label %227, label %233

227:                                              ; preds = %224
  %228 = load ptr, ptr %13, align 8
  %229 = load i32, ptr %14, align 4
  %230 = load i32, ptr %23, align 4
  %231 = call ptr @ber_tvb_new_subset_length(ptr noundef %228, i32 noundef %229, i32 noundef %230)
  %232 = load ptr, ptr %16, align 8
  store ptr %231, ptr %232, align 8
  br label %233

233:                                              ; preds = %227, %224
  %234 = load i32, ptr %24, align 4
  store i32 %234, ptr %9, align 4
  store i32 1, ptr %31, align 4
  br label %235

235:                                              ; preds = %233, %107
  call void @llvm.lifetime.end.p0(i64 8, ptr %29) #12
  call void @llvm.lifetime.end.p0(i64 8, ptr %28) #12
  call void @llvm.lifetime.end.p0(i64 8, ptr %27) #12
  call void @llvm.lifetime.end.p0(i64 8, ptr %26) #12
  call void @llvm.lifetime.end.p0(i64 4, ptr %25) #12
  call void @llvm.lifetime.end.p0(i64 4, ptr %24) #12
  call void @llvm.lifetime.end.p0(i64 4, ptr %23) #12
  call void @llvm.lifetime.end.p0(i64 4, ptr %22) #12
  call void @llvm.lifetime.end.p0(i64 4, ptr %21) #12
  call void @llvm.lifetime.end.p0(i64 4, ptr %20) #12
  call void @llvm.lifetime.end.p0(i64 1, ptr %19) #12
  call void @llvm.lifetime.end.p0(i64 1, ptr %18) #12
  %236 = load i32, ptr %9, align 4
  ret i32 %236
}