; Function Attrs: null_pointer_is_valid sspstrong uwtable
define internal fastcc i32 @dissect_ber_any_oid(i1 noundef zeroext %0, ptr noundef captures(none) %1, ptr noundef %2, ptr noundef %3, i32 noundef %4, i32 noundef %5, ptr noundef writeonly captures(address_is_null) %6, i1 noundef zeroext %7) unnamed_addr #0 {
  %9 = alloca i8, align 1
  %10 = alloca i8, align 1
  %11 = alloca i32, align 4
  %12 = alloca i32, align 4
  call void @llvm.lifetime.start.p0(i64 1, ptr nonnull %9) #14
  call void @llvm.lifetime.start.p0(i64 1, ptr nonnull %10) #14
  call void @llvm.lifetime.start.p0(i64 4, ptr nonnull %11) #14
  call void @llvm.lifetime.start.p0(i64 4, ptr nonnull %12) #14
  br i1 %0, label %42, label %13

13:                                               ; preds = %8
  %14 = getelementptr inbounds nuw i8, ptr %1, i64 16
  %15 = call i32 @dissect_ber_identifier(ptr poison, ptr noundef %2, ptr noundef %3, i32 noundef %4, ptr noundef nonnull %9, ptr noundef nonnull %10, ptr noundef nonnull %11)
  %16 = sub i32 %15, %4
  %17 = call i32 @dissect_ber_length(ptr poison, ptr noundef %2, ptr noundef %3, i32 noundef %15, ptr noundef nonnull %12, ptr noundef null)
  %18 = load i32, ptr %12, align 4
  %19 = add i32 %18, %17
  %20 = load i8, ptr %9, align 1
  %.not78 = icmp eq i8 %20, 0
  br i1 %.not78, label %21, label %23

21:                                               ; preds = %13
  %22 = load i32, ptr %11, align 4
  %or.cond82.v = select i1 %7, i32 6, i32 13
  %or.cond82 = icmp eq i32 %22, %or.cond82.v
  br i1 %or.cond82, label %45, label %23

23:                                               ; preds = %21, %13
  call void @tvb_ensure_bytes_exist(ptr noundef %3, i32 noundef %4, i32 noundef 2)
  %24 = load ptr, ptr %14, align 8
  %25 = load i8, ptr %9, align 1
  %26 = sext i8 %25 to i32
  %27 = call ptr @val_to_str_const(i32 noundef %26, ptr noundef nonnull @ber_class_codes, ptr noundef nonnull @.str.3)
  %28 = load i8, ptr %9, align 1
  %29 = sext i8 %28 to i32
  %30 = load i8, ptr %10, align 1, !range !8, !noundef !9
  %31 = trunc nuw i8 %30 to i1
  %32 = call ptr @tfs_get_string(i1 noundef zeroext %31, ptr noundef nonnull @tfs_constructed_primitive)
  %33 = load i32, ptr %11, align 4
  %34 = call ptr (ptr, ptr, ptr, ptr, i32, i32, ptr, ...) @proto_tree_add_expert_format(ptr noundef %2, ptr noundef %24, ptr noundef nonnull @ei_ber_expected_object_identifier, ptr noundef %3, i32 noundef %4, i32 noundef %16, ptr noundef nonnull @.str.351, ptr noundef %27, i32 noundef %29, ptr noundef %32, i32 noundef %33)
  %35 = load i8, ptr @decode_unexpected, align 1, !range !8, !noundef !9
  %36 = trunc nuw i8 %35 to i1
  br i1 %36, label %37, label %82

37:                                               ; preds = %23
  %38 = load i32, ptr @ett_ber_unknown, align 4
  %39 = call ptr @proto_item_add_subtree(ptr noundef %34, i32 noundef %38)
  %40 = load ptr, ptr %14, align 8
  %41 = call fastcc i32 @try_dissect_unknown_ber(ptr noundef %40, ptr noundef %3, i32 noundef %4, ptr noundef %39, i32 noundef 1)
  br label %82

42:                                               ; preds = %8
  %43 = tail call i32 @tvb_reported_length_remaining(ptr noundef %3, i32 noundef %4)
  store i32 %43, ptr %12, align 4
  %44 = add i32 %43, %4
  br label %45

45:                                               ; preds = %21, %42
  %.074 = phi i32 [ %44, %42 ], [ %19, %21 ]
  %.073 = phi i32 [ %4, %42 ], [ %17, %21 ]
  %46 = getelementptr inbounds nuw i8, ptr %1, i64 24
  store ptr null, ptr %46, align 8
  %47 = call ptr @proto_registrar_get_nth(i32 noundef %5)
  %48 = getelementptr inbounds nuw i8, ptr %47, i64 16
  %49 = load i32, ptr %48, align 8
  br i1 %7, label %50, label %.critedge

50:                                               ; preds = %45
  switch i32 %49, label %75 [
    i32 37, label %51
    i32 26, label %54
    i32 27, label %54
    i32 43, label %54
    i32 45, label %54
    i32 28, label %54
    i32 39, label %54
  ]

.critedge:                                        ; preds = %45
  switch i32 %49, label %75 [
    i32 41, label %51
    i32 26, label %54
    i32 27, label %54
    i32 43, label %54
    i32 45, label %54
    i32 28, label %54
    i32 39, label %54
  ]

51:                                               ; preds = %50, %.critedge
  %52 = load i32, ptr %12, align 4
  %53 = call ptr @proto_tree_add_item(ptr noundef %2, i32 noundef %5, ptr noundef %3, i32 noundef %.073, i32 noundef %52, i32 noundef 0)
  store ptr %53, ptr %46, align 8
  br label %76

54:                                               ; preds = %50, %50, %50, %50, %50, %50, %.critedge, %.critedge, %.critedge, %.critedge, %.critedge, %.critedge
  %55 = getelementptr inbounds nuw i8, ptr %1, i64 16
  %56 = load ptr, ptr %55, align 8
  %57 = getelementptr inbounds nuw i8, ptr %56, i64 408
  %58 = load ptr, ptr %57, align 8
  %59 = load i32, ptr %12, align 4
  %60 = call ptr @tvb_get_ptr(ptr noundef %3, i32 noundef %.073, i32 noundef %59)
  %61 = load i32, ptr %12, align 4
  %62 = call ptr @oid_encoded2string(ptr noundef %58, ptr noundef %60, i32 noundef %61)
  %63 = load i32, ptr %12, align 4
  %64 = call ptr @proto_tree_add_string(ptr noundef %2, i32 noundef %5, ptr noundef %3, i32 noundef %.073, i32 noundef %63, ptr noundef %62)
  store ptr %64, ptr %46, align 8
  %.not = icmp eq ptr %64, null
  br i1 %.not, label %76, label %65

65:                                               ; preds = %54
  %66 = load ptr, ptr %55, align 8
  %67 = getelementptr inbounds nuw i8, ptr %66, i64 408
  %68 = load ptr, ptr %67, align 8
  %69 = load i32, ptr %12, align 4
  %70 = call ptr @tvb_get_ptr(ptr noundef %3, i32 noundef %.073, i32 noundef %69)
  %71 = load i32, ptr %12, align 4
  %72 = call ptr @oid_resolved_from_encoded(ptr noundef %68, ptr noundef %70, i32 noundef %71)
  %.not80 = icmp eq ptr %72, null
  br i1 %.not80, label %76, label %73

73:                                               ; preds = %65
  %74 = load ptr, ptr %46, align 8
  call void (ptr, ptr, ...) @proto_item_append_text(ptr noundef %74, ptr noundef nonnull @.str.352, ptr noundef nonnull %72)
  br label %76

75:                                               ; preds = %50, %.critedge
  call void (ptr, ...) @proto_report_dissector_bug(ptr noundef nonnull @.str.10, ptr noundef nonnull @.str.11, i32 noundef 3283) #15
  unreachable

76:                                               ; preds = %65, %73, %54, %51
  %.not81 = icmp eq ptr %6, null
  br i1 %.not81, label %82, label %77

77:                                               ; preds = %76
  %78 = load i32, ptr %12, align 4
  %79 = call i32 @tvb_reported_length_remaining(ptr noundef %3, i32 noundef %.073)
  %80 = call i32 @llvm.smin.i32(i32 %79, i32 %78)
  %81 = call ptr @tvb_new_subset_length(ptr noundef %3, i32 noundef %.073, i32 noundef %80)
  store ptr %81, ptr %6, align 8
  br label %82

82:                                               ; preds = %76, %77, %23, %37
  %.0 = phi i32 [ %19, %37 ], [ %19, %23 ], [ %.074, %77 ], [ %.074, %76 ]
  call void @llvm.lifetime.end.p0(i64 4, ptr nonnull %12) #14
  call void @llvm.lifetime.end.p0(i64 4, ptr nonnull %11) #14
  call void @llvm.lifetime.end.p0(i64 1, ptr nonnull %10) #14
  call void @llvm.lifetime.end.p0(i64 1, ptr nonnull %9) #14
  ret i32 %.0
}